target datalayout = "e-m:e-p270:32:32-p271:32:32-p272:64:64-i64:64-i128:128-f80:128-n8:16:32:64-S128"
target triple = "x86_64-pc-linux-gnu"

@.str.8 = private unnamed_addr constant [3 x i8] c"%s\00", align 1

; Function Attrs: mustprogress uwtable
define internal void @_ZL39funnel_statistics_set_color_filter_slothPKc(i8 noundef zeroext %0, ptr noundef %1) #0 {
  %3 = alloca i8, align 1
  %4 = alloca ptr, align 8
  %5 = alloca ptr, align 8
  store i8 %0, ptr %3, align 1
  store ptr %1, ptr %4, align 8
  store ptr null, ptr %5, align 8
  %6 = load i8, ptr %3, align 1
  %7 = load ptr, ptr %4, align 8
  %8 = call i32 @color_filters_set_tmp(i8 noundef zeroext %6, ptr noundef %7, i32 noundef 0, ptr noundef %5)
  %9 = icmp ne i32 %8, 0
  br i1 %9, label %14, label %10

10:                                               ; preds = %2
  %11 = load ptr, ptr %5, align 8
  %12 = call ptr (i32, i32, ptr, ...) @simple_dialog(i32 noundef 3, i32 noundef 1, ptr noundef @.str.8, ptr noundef %11)
  %13 = load ptr, ptr %5, align 8
  call void @g_free(ptr noundef %13)
  br label %14

14:                                               ; preds = %10, %2
  ret void
}