; Function Attrs: mustprogress uwtable
define internal void @_ZL39funnel_statistics_set_color_filter_slothPKc(i8 noundef zeroext %0, ptr noundef %1) #0 {
  %3 = alloca ptr, align 8
  store ptr null, ptr %3, align 8
  %4 = call i32 @color_filters_set_tmp(i8 noundef zeroext %0, ptr noundef %1, i32 noundef 0, ptr noundef nonnull %3)
  %.not = icmp eq i32 %4, 0
  br i1 %.not, label %5, label %9

5:                                                ; preds = %2
  %6 = load ptr, ptr %3, align 8
  %7 = call ptr (i32, i32, ptr, ...) @simple_dialog(i32 noundef 3, i32 noundef 1, ptr noundef nonnull @.str.8, ptr noundef %6)
  %8 = load ptr, ptr %3, align 8
  call void @g_free(ptr noundef %8)
  br label %9

9:                                                ; preds = %5, %2
  ret void
}